; Function Attrs: mustprogress nofree norecurse nosync nounwind willreturn memory(argmem: read) uwtable
define dso_local range(i64 0, 8589934592) i64 @_ZNK5clang19PrecompiledPreamble9getBoundsEv(ptr nocapture noundef nonnull readonly align 8 dereferenceable(81) %0) local_unnamed_addr #6 align 2 {
  %2 = getelementptr inbounds nuw i8, ptr %0, i64 56
  %3 = getelementptr inbounds i8, ptr %0, i64 64
  %4 = load ptr, ptr %3, align 8
  %5 = load ptr, ptr %2, align 8
  %6 = ptrtoint ptr %4 to i64
  %7 = ptrtoint ptr %5 to i64
  %8 = sub i64 %6, %7
  %9 = getelementptr inbounds nuw i8, ptr %0, i64 80
  %10 = load i8, ptr %9, align 8
  %11 = and i8 %10, 1
  %.sroa.2.0.insert.ext = zext nneg i8 %11 to i64
  %.sroa.2.0.insert.shift = shl nuw nsw i64 %.sroa.2.0.insert.ext, 32
  %.sroa.0.0.insert.ext = and i64 %8, 4294967295
  %.sroa.0.0.insert.insert = or disjoint i64 %.sroa.2.0.insert.shift, %.sroa.0.0.insert.ext
  ret i64 %.sroa.0.0.insert.insert
}